target datalayout = "e-m:e-p270:32:32-p271:32:32-p272:64:64-i64:64-i128:128-f80:128-n8:16:32:64-S128"
target triple = "x86_64-pc-linux-gnu"

%struct.ossl_ml_kem_key_st = type { ptr, ptr, ptr, ptr, ptr, ptr, ptr, ptr, ptr, ptr, ptr, ptr, ptr, i32, i32, [64 x i8], ptr }
%struct.ML_KEM_VINFO = type { ptr, i64, i64, i64, i64, i64, i64, i64, i32, i32, i32, i32, i32, i32 }

@.str.2 = private unnamed_addr constant [4 x i8] c"pub\00", align 1
@.str.7 = private unnamed_addr constant [5 x i8] c"priv\00", align 1
@.str.8 = private unnamed_addr constant [5 x i8] c"seed\00", align 1
@.str.9 = private unnamed_addr constant [60 x i8] c"../openssl/providers/implementations/keymgmt/ml_kem_kmgmt.c\00", align 1
@__func__.ml_kem_export = private unnamed_addr constant [14 x i8] c"ml_kem_export\00", align 1

; Function Attrs: nounwind uwtable
define internal i32 @ml_kem_export(ptr noundef %0, i32 noundef %1, ptr noundef %2, ptr noundef %3) #0 {
  %5 = alloca i32, align 4
  %6 = alloca ptr, align 8
  %7 = alloca i32, align 4
  %8 = alloca ptr, align 8
  %9 = alloca ptr, align 8
  %10 = alloca ptr, align 8
  %11 = alloca ptr, align 8
  %12 = alloca ptr, align 8
  %13 = alloca ptr, align 8
  %14 = alloca ptr, align 8
  %15 = alloca ptr, align 8
  %16 = alloca ptr, align 8
  %17 = alloca i64, align 8
  %18 = alloca i64, align 8
  %19 = alloca i32, align 4
  %20 = alloca i32, align 4
  store ptr %0, ptr %6, align 8, !tbaa !3
  store i32 %1, ptr %7, align 4, !tbaa !25
  store ptr %2, ptr %8, align 8, !tbaa !3
  store ptr %3, ptr %9, align 8, !tbaa !3
  call void @llvm.lifetime.start.p0(i64 8, ptr %10) #7
  %21 = load ptr, ptr %6, align 8, !tbaa !3
  store ptr %21, ptr %10, align 8, !tbaa !9
  call void @llvm.lifetime.start.p0(i64 8, ptr %11) #7
  store ptr null, ptr %11, align 8, !tbaa !50
  call void @llvm.lifetime.start.p0(i64 8, ptr %12) #7
  store ptr null, ptr %12, align 8, !tbaa !7
  call void @llvm.lifetime.start.p0(i64 8, ptr %13) #7
  call void @llvm.lifetime.start.p0(i64 8, ptr %14) #7
  store ptr null, ptr %14, align 8, !tbaa !24
  call void @llvm.lifetime.start.p0(i64 8, ptr %15) #7
  store ptr null, ptr %15, align 8, !tbaa !24
  call void @llvm.lifetime.start.p0(i64 8, ptr %16) #7
  store ptr null, ptr %16, align 8, !tbaa !24
  call void @llvm.lifetime.start.p0(i64 8, ptr %17) #7
  store i64 0, ptr %17, align 8, !tbaa !37
  call void @llvm.lifetime.start.p0(i64 8, ptr %18) #7
  store i64 0, ptr %18, align 8, !tbaa !37
  call void @llvm.lifetime.start.p0(i64 4, ptr %19) #7
  store i32 0, ptr %19, align 4, !tbaa !25
  %22 = call i32 @ossl_prov_is_running()
  %23 = icmp ne i32 %22, 0
  br i1 %23, label %24, label %27

24:                                               ; preds = %4
  %25 = load ptr, ptr %10, align 8, !tbaa !9
  %26 = icmp eq ptr %25, null
  br i1 %26, label %27, label %28

27:                                               ; preds = %24, %4
  store i32 0, ptr %5, align 4
  store i32 1, ptr %20, align 4
  br label %206

28:                                               ; preds = %24
  %29 = load i32, ptr %7, align 4, !tbaa !25
  %30 = and i32 %29, 3
  %31 = icmp eq i32 %30, 0
  br i1 %31, label %32, label %33

32:                                               ; preds = %28
  store i32 0, ptr %5, align 4
  store i32 1, ptr %20, align 4
  br label %206

33:                                               ; preds = %28
  %34 = load ptr, ptr %10, align 8, !tbaa !9
  %35 = getelementptr inbounds nuw %struct.ossl_ml_kem_key_st, ptr %34, i32 0, i32 0
  %36 = load ptr, ptr %35, align 8, !tbaa !11
  store ptr %36, ptr %13, align 8, !tbaa !3
  %37 = load ptr, ptr %10, align 8, !tbaa !9
  %38 = getelementptr inbounds nuw %struct.ossl_ml_kem_key_st, ptr %37, i32 0, i32 8
  %39 = load ptr, ptr %38, align 8, !tbaa !23
  %40 = icmp ne ptr %39, null
  br i1 %40, label %62, label %41

41:                                               ; preds = %33
  %42 = load i32, ptr %7, align 4, !tbaa !25
  %43 = and i32 %42, 1
  %44 = icmp eq i32 %43, 0
  br i1 %44, label %60, label %45

45:                                               ; preds = %41
  %46 = load ptr, ptr %10, align 8, !tbaa !9
  %47 = getelementptr inbounds nuw %struct.ossl_ml_kem_key_st, ptr %46, i32 0, i32 16
  %48 = load ptr, ptr %47, align 8, !tbaa !47
  %49 = icmp ne ptr %48, null
  br i1 %49, label %61, label %50

50:                                               ; preds = %45
  %51 = load ptr, ptr %10, align 8, !tbaa !9
  %52 = getelementptr inbounds nuw %struct.ossl_ml_kem_key_st, ptr %51, i32 0, i32 10
  %53 = load ptr, ptr %52, align 8, !tbaa !34
  %54 = icmp eq ptr %53, null
  br i1 %54, label %55, label %60

55:                                               ; preds = %50
  %56 = load ptr, ptr %10, align 8, !tbaa !9
  %57 = getelementptr inbounds nuw %struct.ossl_ml_kem_key_st, ptr %56, i32 0, i32 12
  %58 = load ptr, ptr %57, align 8, !tbaa !36
  %59 = icmp ne ptr %58, null
  br i1 %59, label %61, label %60

60:                                               ; preds = %55, %50, %41
  call void @ERR_new()
  call void @ERR_set_debug(ptr noundef @.str.9, i32 noundef 229, ptr noundef @__func__.ml_kem_export)
  call void (i32, i32, ptr, ...) @ERR_set_error(i32 noundef 57, i32 noundef 128, ptr noundef null)
  store i32 0, ptr %5, align 4
  store i32 1, ptr %20, align 4
  br label %206

61:                                               ; preds = %55, %45
  br label %84

62:                                               ; preds = %33
  %63 = load i32, ptr %7, align 4, !tbaa !25
  %64 = and i32 %63, 2
  %65 = icmp ne i32 %64, 0
  br i1 %65, label %66, label %83

66:                                               ; preds = %62
  %67 = load ptr, ptr %13, align 8, !tbaa !3
  %68 = getelementptr inbounds nuw %struct.ML_KEM_VINFO, ptr %67, i32 0, i32 3
  %69 = load i64, ptr %68, align 8, !tbaa !28
  %70 = call noalias ptr @CRYPTO_malloc(i64 noundef %69, ptr noundef @.str.9, i32 noundef 233)
  store ptr %70, ptr %14, align 8, !tbaa !24
  %71 = load ptr, ptr %14, align 8, !tbaa !24
  %72 = icmp eq ptr %71, null
  br i1 %72, label %81, label %73

73:                                               ; preds = %66
  %74 = load ptr, ptr %14, align 8, !tbaa !24
  %75 = load ptr, ptr %13, align 8, !tbaa !3
  %76 = getelementptr inbounds nuw %struct.ML_KEM_VINFO, ptr %75, i32 0, i32 3
  %77 = load i64, ptr %76, align 8, !tbaa !28
  %78 = load ptr, ptr %10, align 8, !tbaa !9
  %79 = call i32 @ossl_ml_kem_encode_public_key(ptr noundef %74, i64 noundef %77, ptr noundef %78)
  %80 = icmp ne i32 %79, 0
  br i1 %80, label %82, label %81

81:                                               ; preds = %73, %66
  br label %198

82:                                               ; preds = %73
  br label %83

83:                                               ; preds = %82, %62
  br label %84

84:                                               ; preds = %83, %61
  %85 = load i32, ptr %7, align 4, !tbaa !25
  %86 = and i32 %85, 1
  %87 = icmp ne i32 %86, 0
  br i1 %87, label %88, label %146

88:                                               ; preds = %84
  %89 = load ptr, ptr %10, align 8, !tbaa !9
  %90 = getelementptr inbounds nuw %struct.ossl_ml_kem_key_st, ptr %89, i32 0, i32 12
  %91 = load ptr, ptr %90, align 8, !tbaa !36
  %92 = icmp ne ptr %91, null
  br i1 %92, label %93, label %105

93:                                               ; preds = %88
  store i64 64, ptr %18, align 8, !tbaa !37
  %94 = load i64, ptr %18, align 8, !tbaa !37
  %95 = call noalias ptr @CRYPTO_secure_zalloc(i64 noundef %94, ptr noundef @.str.9, i32 noundef 247)
  store ptr %95, ptr %16, align 8, !tbaa !24
  %96 = icmp eq ptr %95, null
  br i1 %96, label %103, label %97

97:                                               ; preds = %93
  %98 = load ptr, ptr %16, align 8, !tbaa !24
  %99 = load i64, ptr %18, align 8, !tbaa !37
  %100 = load ptr, ptr %10, align 8, !tbaa !9
  %101 = call i32 @ossl_ml_kem_encode_seed(ptr noundef %98, i64 noundef %99, ptr noundef %100)
  %102 = icmp ne i32 %101, 0
  br i1 %102, label %104, label %103

103:                                              ; preds = %97, %93
  br label %198

104:                                              ; preds = %97
  br label %105

105:                                              ; preds = %104, %88
  %106 = load ptr, ptr %10, align 8, !tbaa !9
  %107 = getelementptr inbounds nuw %struct.ossl_ml_kem_key_st, ptr %106, i32 0, i32 10
  %108 = load ptr, ptr %107, align 8, !tbaa !34
  %109 = icmp ne ptr %108, null
  br i1 %109, label %110, label %125

110:                                              ; preds = %105
  %111 = load ptr, ptr %13, align 8, !tbaa !3
  %112 = getelementptr inbounds nuw %struct.ML_KEM_VINFO, ptr %111, i32 0, i32 1
  %113 = load i64, ptr %112, align 8, !tbaa !35
  store i64 %113, ptr %17, align 8, !tbaa !37
  %114 = load i64, ptr %17, align 8, !tbaa !37
  %115 = call noalias ptr @CRYPTO_secure_zalloc(i64 noundef %114, ptr noundef @.str.9, i32 noundef 253)
  store ptr %115, ptr %15, align 8, !tbaa !24
  %116 = icmp eq ptr %115, null
  br i1 %116, label %123, label %117

117:                                              ; preds = %110
  %118 = load ptr, ptr %15, align 8, !tbaa !24
  %119 = load i64, ptr %17, align 8, !tbaa !37
  %120 = load ptr, ptr %10, align 8, !tbaa !9
  %121 = call i32 @ossl_ml_kem_encode_private_key(ptr noundef %118, i64 noundef %119, ptr noundef %120)
  %122 = icmp ne i32 %121, 0
  br i1 %122, label %124, label %123

123:                                              ; preds = %117, %110
  br label %198

124:                                              ; preds = %117
  br label %145

125:                                              ; preds = %105
  %126 = load ptr, ptr %10, align 8, !tbaa !9
  %127 = getelementptr inbounds nuw %struct.ossl_ml_kem_key_st, ptr %126, i32 0, i32 16
  %128 = load ptr, ptr %127, align 8, !tbaa !47
  %129 = icmp ne ptr %128, null
  br i1 %129, label %130, label %144

130:                                              ; preds = %125
  %131 = load ptr, ptr %13, align 8, !tbaa !3
  %132 = getelementptr inbounds nuw %struct.ML_KEM_VINFO, ptr %131, i32 0, i32 1
  %133 = load i64, ptr %132, align 8, !tbaa !35
  store i64 %133, ptr %17, align 8, !tbaa !37
  %134 = load i64, ptr %17, align 8, !tbaa !37
  %135 = call noalias ptr @CRYPTO_secure_zalloc(i64 noundef %134, ptr noundef @.str.9, i32 noundef 258)
  store ptr %135, ptr %15, align 8, !tbaa !24
  %136 = icmp eq ptr %135, null
  br i1 %136, label %137, label %138

137:                                              ; preds = %130
  br label %198

138:                                              ; preds = %130
  %139 = load ptr, ptr %15, align 8, !tbaa !24
  %140 = load ptr, ptr %10, align 8, !tbaa !9
  %141 = getelementptr inbounds nuw %struct.ossl_ml_kem_key_st, ptr %140, i32 0, i32 16
  %142 = load ptr, ptr %141, align 8, !tbaa !47
  %143 = load i64, ptr %17, align 8, !tbaa !37
  call void @llvm.memcpy.p0.p0.i64(ptr align 1 %139, ptr align 1 %142, i64 %143, i1 false)
  br label %144

144:                                              ; preds = %138, %125
  br label %145

145:                                              ; preds = %144, %124
  br label %146

146:                                              ; preds = %145, %84
  %147 = call ptr @OSSL_PARAM_BLD_new()
  store ptr %147, ptr %11, align 8, !tbaa !50
  %148 = load ptr, ptr %11, align 8, !tbaa !50
  %149 = icmp eq ptr %148, null
  br i1 %149, label %150, label %151

150:                                              ; preds = %146
  br label %198

151:                                              ; preds = %146
  %152 = load ptr, ptr %16, align 8, !tbaa !24
  %153 = icmp ne ptr %152, null
  br i1 %153, label %154, label %162

154:                                              ; preds = %151
  %155 = load ptr, ptr %11, align 8, !tbaa !50
  %156 = load ptr, ptr %12, align 8, !tbaa !7
  %157 = load ptr, ptr %16, align 8, !tbaa !24
  %158 = load i64, ptr %18, align 8, !tbaa !37
  %159 = call i32 @ossl_param_build_set_octet_string(ptr noundef %155, ptr noundef %156, ptr noundef @.str.8, ptr noundef %157, i64 noundef %158)
  %160 = icmp ne i32 %159, 0
  br i1 %160, label %162, label %161

161:                                              ; preds = %154
  br label %198

162:                                              ; preds = %154, %151
  %163 = load ptr, ptr %15, align 8, !tbaa !24
  %164 = icmp ne ptr %163, null
  br i1 %164, label %165, label %173

165:                                              ; preds = %162
  %166 = load ptr, ptr %11, align 8, !tbaa !50
  %167 = load ptr, ptr %12, align 8, !tbaa !7
  %168 = load ptr, ptr %15, align 8, !tbaa !24
  %169 = load i64, ptr %17, align 8, !tbaa !37
  %170 = call i32 @ossl_param_build_set_octet_string(ptr noundef %166, ptr noundef %167, ptr noundef @.str.7, ptr noundef %168, i64 noundef %169)
  %171 = icmp ne i32 %170, 0
  br i1 %171, label %173, label %172

172:                                              ; preds = %165
  br label %198

173:                                              ; preds = %165, %162
  %174 = load ptr, ptr %14, align 8, !tbaa !24
  %175 = icmp ne ptr %174, null
  br i1 %175, label %176, label %186

176:                                              ; preds = %173
  %177 = load ptr, ptr %11, align 8, !tbaa !50
  %178 = load ptr, ptr %12, align 8, !tbaa !7
  %179 = load ptr, ptr %14, align 8, !tbaa !24
  %180 = load ptr, ptr %13, align 8, !tbaa !3
  %181 = getelementptr inbounds nuw %struct.ML_KEM_VINFO, ptr %180, i32 0, i32 3
  %182 = load i64, ptr %181, align 8, !tbaa !28
  %183 = call i32 @ossl_param_build_set_octet_string(ptr noundef %177, ptr noundef %178, ptr noundef @.str.2, ptr noundef %179, i64 noundef %182)
  %184 = icmp ne i32 %183, 0
  br i1 %184, label %186, label %185

185:                                              ; preds = %176
  br label %198

186:                                              ; preds = %176, %173
  %187 = load ptr, ptr %11, align 8, !tbaa !50
  %188 = call ptr @OSSL_PARAM_BLD_to_param(ptr noundef %187)
  store ptr %188, ptr %12, align 8, !tbaa !7
  %189 = load ptr, ptr %12, align 8, !tbaa !7
  %190 = icmp eq ptr %189, null
  br i1 %190, label %191, label %192

191:                                              ; preds = %186
  br label %198

192:                                              ; preds = %186
  %193 = load ptr, ptr %8, align 8, !tbaa !3
  %194 = load ptr, ptr %12, align 8, !tbaa !7
  %195 = load ptr, ptr %9, align 8, !tbaa !3
  %196 = call i32 %193(ptr noundef %194, ptr noundef %195)
  store i32 %196, ptr %19, align 4, !tbaa !25
  %197 = load ptr, ptr %12, align 8, !tbaa !7
  call void @OSSL_PARAM_free(ptr noundef %197)
  br label %198

198:                                              ; preds = %192, %191, %185, %172, %161, %150, %137, %123, %103, %81
  %199 = load ptr, ptr %11, align 8, !tbaa !50
  call void @OSSL_PARAM_BLD_free(ptr noundef %199)
  %200 = load ptr, ptr %16, align 8, !tbaa !24
  %201 = load i64, ptr %18, align 8, !tbaa !37
  call void @CRYPTO_secure_clear_free(ptr noundef %200, i64 noundef %201, ptr noundef @.str.9, i32 noundef 295)
  %202 = load ptr, ptr %15, align 8, !tbaa !24
  %203 = load i64, ptr %17, align 8, !tbaa !37
  call void @CRYPTO_secure_clear_free(ptr noundef %202, i64 noundef %203, ptr noundef @.str.9, i32 noundef 296)
  %204 = load ptr, ptr %14, align 8, !tbaa !24
  call void @CRYPTO_free(ptr noundef %204, ptr noundef @.str.9, i32 noundef 297)
  %205 = load i32, ptr %19, align 4, !tbaa !25
  store i32 %205, ptr %5, align 4
  store i32 1, ptr %20, align 4
  br label %206

206:                                              ; preds = %198, %60, %32, %27
  call void @llvm.lifetime.end.p0(i64 4, ptr %19) #7
  call void @llvm.lifetime.end.p0(i64 8, ptr %18) #7
  call void @llvm.lifetime.end.p0(i64 8, ptr %17) #7
  call void @llvm.lifetime.end.p0(i64 8, ptr %16) #7
  call void @llvm.lifetime.end.p0(i64 8, ptr %15) #7
  call void @llvm.lifetime.end.p0(i64 8, ptr %14) #7
  call void @llvm.lifetime.end.p0(i64 8, ptr %13) #7
  call void @llvm.lifetime.end.p0(i64 8, ptr %12) #7
  call void @llvm.lifetime.end.p0(i64 8, ptr %11) #7
  call void @llvm.lifetime.end.p0(i64 8, ptr %10) #7
  %207 = load i32, ptr %5, align 4
  ret i32 %207
}