; Function Attrs: nounwind uwtable
define internal i32 @ml_kem_export(ptr noundef %0, i32 noundef %1, ptr noundef readonly captures(none) %2, ptr noundef %3) #0 {
  %5 = tail call i32 @ossl_prov_is_running() #7
  %6 = icmp eq i32 %5, 0
  %7 = icmp eq ptr %0, null
  %or.cond = or i1 %7, %6
  %8 = and i32 %1, 3
  %9 = icmp eq i32 %8, 0
  %or.cond104 = or i1 %9, %or.cond
  br i1 %or.cond104, label %90, label %10

10:                                               ; preds = %4
  %11 = load ptr, ptr %0, align 8, !tbaa !14
  %12 = getelementptr inbounds nuw i8, ptr %0, i64 64
  %13 = load ptr, ptr %12, align 8, !tbaa !20
  %.not = icmp eq ptr %13, null
  br i1 %.not, label %14, label %28

14:                                               ; preds = %10
  %15 = and i32 %1, 1
  %16 = icmp eq i32 %15, 0
  br i1 %16, label %27, label %17

17:                                               ; preds = %14
  %18 = getelementptr inbounds nuw i8, ptr %0, i64 176
  %19 = load ptr, ptr %18, align 8, !tbaa !46
  %.not87 = icmp eq ptr %19, null
  br i1 %.not87, label %20, label %38

20:                                               ; preds = %17
  %21 = getelementptr inbounds nuw i8, ptr %0, i64 80
  %22 = load ptr, ptr %21, align 8, !tbaa !30
  %23 = icmp eq ptr %22, null
  br i1 %23, label %24, label %27

24:                                               ; preds = %20
  %25 = getelementptr inbounds nuw i8, ptr %0, i64 96
  %26 = load ptr, ptr %25, align 8, !tbaa !32
  %.not88 = icmp eq ptr %26, null
  br i1 %.not88, label %27, label %38

27:                                               ; preds = %24, %20, %14
  tail call void @ERR_new() #7
  tail call void @ERR_set_debug(ptr noundef nonnull @.str.9, i32 noundef 229, ptr noundef nonnull @__func__.ml_kem_export) #7
  tail call void (i32, i32, ptr, ...) @ERR_set_error(i32 noundef 57, i32 noundef 128, ptr noundef null) #7
  br label %90

28:                                               ; preds = %10
  %29 = and i32 %1, 2
  %.not89 = icmp eq i32 %29, 0
  br i1 %.not89, label %38, label %30

30:                                               ; preds = %28
  %31 = getelementptr inbounds nuw i8, ptr %11, i64 24
  %32 = load i64, ptr %31, align 8, !tbaa !24
  %33 = tail call noalias ptr @CRYPTO_malloc(i64 noundef %32, ptr noundef nonnull @.str.9, i32 noundef 233) #7
  %34 = icmp eq ptr %33, null
  br i1 %34, label %89, label %35

35:                                               ; preds = %30
  %36 = load i64, ptr %31, align 8, !tbaa !24
  %37 = tail call i32 @ossl_ml_kem_encode_public_key(ptr noundef nonnull %33, i64 noundef %36, ptr noundef nonnull %0) #7
  %.not90 = icmp eq i32 %37, 0
  br i1 %.not90, label %89, label %38

38:                                               ; preds = %28, %35, %17, %24
  %.071 = phi ptr [ %33, %35 ], [ null, %28 ], [ null, %17 ], [ null, %24 ]
  %39 = and i32 %1, 1
  %.not91 = icmp eq i32 %39, 0
  br i1 %.not91, label %.thread, label %40

40:                                               ; preds = %38
  %41 = getelementptr inbounds nuw i8, ptr %0, i64 96
  %42 = load ptr, ptr %41, align 8, !tbaa !32
  %.not92 = icmp eq ptr %42, null
  br i1 %.not92, label %48, label %43

43:                                               ; preds = %40
  %44 = tail call noalias ptr @CRYPTO_secure_zalloc(i64 noundef 64, ptr noundef nonnull @.str.9, i32 noundef 247) #7
  %45 = icmp eq ptr %44, null
  br i1 %45, label %89, label %46

46:                                               ; preds = %43
  %47 = tail call i32 @ossl_ml_kem_encode_seed(ptr noundef nonnull %44, i64 noundef 64, ptr noundef nonnull %0) #7
  %.not93 = icmp eq i32 %47, 0
  br i1 %.not93, label %89, label %48

48:                                               ; preds = %46, %40
  %.268 = phi ptr [ %44, %46 ], [ null, %40 ]
  %.2 = phi i64 [ 64, %46 ], [ 0, %40 ]
  %49 = getelementptr inbounds nuw i8, ptr %0, i64 80
  %50 = load ptr, ptr %49, align 8, !tbaa !30
  %.not94 = icmp eq ptr %50, null
  br i1 %.not94, label %58, label %51

51:                                               ; preds = %48
  %52 = getelementptr inbounds nuw i8, ptr %11, i64 8
  %53 = load i64, ptr %52, align 8, !tbaa !31
  %54 = tail call noalias ptr @CRYPTO_secure_zalloc(i64 noundef %53, ptr noundef nonnull @.str.9, i32 noundef 253) #7
  %55 = icmp eq ptr %54, null
  br i1 %55, label %89, label %56

56:                                               ; preds = %51
  %57 = tail call i32 @ossl_ml_kem_encode_private_key(ptr noundef nonnull %54, i64 noundef %53, ptr noundef nonnull %0) #7
  %.not96 = icmp eq i32 %57, 0
  br i1 %.not96, label %89, label %68

58:                                               ; preds = %48
  %59 = getelementptr inbounds nuw i8, ptr %0, i64 176
  %60 = load ptr, ptr %59, align 8, !tbaa !46
  %.not95 = icmp eq ptr %60, null
  br i1 %.not95, label %68, label %61

61:                                               ; preds = %58
  %62 = getelementptr inbounds nuw i8, ptr %11, i64 8
  %63 = load i64, ptr %62, align 8, !tbaa !31
  %64 = tail call noalias ptr @CRYPTO_secure_zalloc(i64 noundef %63, ptr noundef nonnull @.str.9, i32 noundef 258) #7
  %65 = icmp eq ptr %64, null
  br i1 %65, label %89, label %66

66:                                               ; preds = %61
  %67 = load ptr, ptr %59, align 8, !tbaa !46
  tail call void @llvm.memcpy.p0.p0.i64(ptr nonnull align 1 %64, ptr align 1 %67, i64 %63, i1 false)
  br label %68

68:                                               ; preds = %56, %66, %58
  %.170 = phi ptr [ %54, %56 ], [ %64, %66 ], [ null, %58 ]
  %.165 = phi i64 [ %53, %56 ], [ %63, %66 ], [ 0, %58 ]
  %69 = tail call ptr @OSSL_PARAM_BLD_new() #7
  %70 = icmp eq ptr %69, null
  br i1 %70, label %89, label %73

.thread:                                          ; preds = %38
  %71 = tail call ptr @OSSL_PARAM_BLD_new() #7
  %72 = icmp eq ptr %71, null
  br i1 %72, label %89, label %.thread123

73:                                               ; preds = %68
  %.not97 = icmp eq ptr %.268, null
  br i1 %.not97, label %76, label %74

74:                                               ; preds = %73
  %75 = tail call i32 @ossl_param_build_set_octet_string(ptr noundef nonnull %69, ptr noundef null, ptr noundef nonnull @.str.8, ptr noundef nonnull %.268, i64 noundef %.2) #7
  %.not98 = icmp eq i32 %75, 0
  br i1 %.not98, label %89, label %76

76:                                               ; preds = %74, %73
  %.not99 = icmp eq ptr %.170, null
  br i1 %.not99, label %.thread123, label %77

77:                                               ; preds = %76
  %78 = tail call i32 @ossl_param_build_set_octet_string(ptr noundef nonnull %69, ptr noundef null, ptr noundef nonnull @.str.7, ptr noundef nonnull %.170, i64 noundef %.165) #7
  %.not100 = icmp eq i32 %78, 0
  br i1 %.not100, label %89, label %.thread123

.thread123:                                       ; preds = %.thread, %77, %76
  %79 = phi ptr [ %69, %77 ], [ %69, %76 ], [ %71, %.thread ]
  %.1112119132 = phi i64 [ %.2, %77 ], [ %.2, %76 ], [ 0, %.thread ]
  %.165111120131 = phi i64 [ %.165, %77 ], [ %.165, %76 ], [ 0, %.thread ]
  %.167110121130 = phi ptr [ %.268, %77 ], [ %.268, %76 ], [ null, %.thread ]
  %.170109122129 = phi ptr [ %.170, %77 ], [ null, %76 ], [ null, %.thread ]
  %.not101 = icmp eq ptr %.071, null
  br i1 %.not101, label %84, label %80

80:                                               ; preds = %.thread123
  %81 = getelementptr inbounds nuw i8, ptr %11, i64 24
  %82 = load i64, ptr %81, align 8, !tbaa !24
  %83 = tail call i32 @ossl_param_build_set_octet_string(ptr noundef nonnull %79, ptr noundef null, ptr noundef nonnull @.str.2, ptr noundef nonnull %.071, i64 noundef %82) #7
  %.not102 = icmp eq i32 %83, 0
  br i1 %.not102, label %89, label %84

84:                                               ; preds = %80, %.thread123
  %85 = tail call ptr @OSSL_PARAM_BLD_to_param(ptr noundef nonnull %79) #7
  %86 = icmp eq ptr %85, null
  br i1 %86, label %89, label %87

87:                                               ; preds = %84
  %88 = tail call i32 %2(ptr noundef nonnull %85, ptr noundef %3) #7
  tail call void @OSSL_PARAM_free(ptr noundef nonnull %85) #7
  br label %89

89:                                               ; preds = %.thread, %84, %80, %77, %74, %68, %61, %51, %56, %43, %46, %30, %35, %87
  %.074 = phi ptr [ null, %30 ], [ null, %43 ], [ null, %51 ], [ null, %68 ], [ %79, %84 ], [ %79, %87 ], [ %79, %80 ], [ %69, %77 ], [ %69, %74 ], [ null, %56 ], [ null, %61 ], [ null, %46 ], [ null, %35 ], [ null, %.thread ]
  %.172 = phi ptr [ null, %30 ], [ %.071, %43 ], [ %.071, %51 ], [ %.071, %68 ], [ %.071, %84 ], [ %.071, %87 ], [ %.071, %80 ], [ %.071, %77 ], [ %.071, %74 ], [ %.071, %56 ], [ %.071, %61 ], [ %.071, %46 ], [ %33, %35 ], [ %.071, %.thread ]
  %.069 = phi ptr [ null, %30 ], [ null, %43 ], [ null, %51 ], [ %.170, %68 ], [ %.170109122129, %84 ], [ %.170109122129, %87 ], [ %.170109122129, %80 ], [ %.170, %77 ], [ %.170, %74 ], [ %54, %56 ], [ null, %61 ], [ null, %46 ], [ null, %35 ], [ null, %.thread ]
  %.066 = phi ptr [ null, %30 ], [ null, %43 ], [ %.268, %51 ], [ %.268, %68 ], [ %.167110121130, %84 ], [ %.167110121130, %87 ], [ %.167110121130, %80 ], [ %.268, %77 ], [ %.268, %74 ], [ %.268, %56 ], [ %.268, %61 ], [ %44, %46 ], [ null, %35 ], [ null, %.thread ]
  %.064 = phi i64 [ 0, %30 ], [ 0, %43 ], [ %53, %51 ], [ %.165, %68 ], [ %.165111120131, %84 ], [ %.165111120131, %87 ], [ %.165111120131, %80 ], [ %.165, %77 ], [ %.165, %74 ], [ %53, %56 ], [ %63, %61 ], [ 0, %46 ], [ 0, %35 ], [ 0, %.thread ]
  %.063 = phi i64 [ 0, %30 ], [ 64, %43 ], [ %.2, %51 ], [ %.2, %68 ], [ %.1112119132, %84 ], [ %.1112119132, %87 ], [ %.1112119132, %80 ], [ %.2, %77 ], [ %.2, %74 ], [ %.2, %56 ], [ %.2, %61 ], [ 64, %46 ], [ 0, %35 ], [ 0, %.thread ]
  %.0 = phi i32 [ 0, %30 ], [ 0, %43 ], [ 0, %51 ], [ 0, %68 ], [ 0, %84 ], [ %88, %87 ], [ 0, %80 ], [ 0, %77 ], [ 0, %74 ], [ 0, %56 ], [ 0, %61 ], [ 0, %46 ], [ 0, %35 ], [ 0, %.thread ]
  tail call void @OSSL_PARAM_BLD_free(ptr noundef %.074) #7
  tail call void @CRYPTO_secure_clear_free(ptr noundef %.066, i64 noundef %.063, ptr noundef nonnull @.str.9, i32 noundef 295) #7
  tail call void @CRYPTO_secure_clear_free(ptr noundef %.069, i64 noundef %.064, ptr noundef nonnull @.str.9, i32 noundef 296) #7
  tail call void @CRYPTO_free(ptr noundef %.172, ptr noundef nonnull @.str.9, i32 noundef 297) #7
  br label %90

90:                                               ; preds = %4, %89, %27
  %.073 = phi i32 [ %.0, %89 ], [ 0, %27 ], [ 0, %4 ]
  ret i32 %.073
}